; Function Attrs: mustprogress uwtable
define dso_local void @_ZN7V3Graph11reportLoopsEPFbPK11V3GraphEdgeEP13V3GraphVertex(ptr noundef nonnull align 8 dereferenceable(24) %0, ptr noundef %1, ptr noundef %2) #3 align 2 personality ptr @__gxx_personality_v0 {
  %4 = alloca %class.GraphAlgRLoops, align 8
  call void @_ZN14GraphAlgRLoopsC2EP7V3GraphPFbPK11V3GraphEdgeEP13V3GraphVertex(ptr noundef nonnull align 8 dereferenceable(48) %4, ptr noundef nonnull %0, ptr noundef %1, ptr noundef %2)
  %5 = getelementptr inbounds i8, ptr %4, i64 16
  %6 = load ptr, ptr %5, align 8
  %.not.i.i.i.i = icmp eq ptr %6, null
  br i1 %.not.i.i.i.i, label %_ZN14GraphAlgRLoopsD2Ev.exit, label %7

7:                                                ; preds = %3
  call void @_ZdlPv(ptr noundef nonnull %6) #18
  br label %_ZN14GraphAlgRLoopsD2Ev.exit

_ZN14GraphAlgRLoopsD2Ev.exit:                     ; preds = %3, %7
  ret void
}